; Function Attrs: mustprogress nofree norecurse nosync nounwind willreturn memory(argmem: readwrite) uwtable
define noundef nonnull align 4 dereferenceable(16) ptr @_ZN32pxrInternal_v0_24__pxrReserved__10GfMatrix2fmLERKS0_(ptr noundef nonnull returned align 4 dereferenceable(16) %0, ptr noundef nonnull readonly align 4 captures(none) dereferenceable(16) %1) local_unnamed_addr #2 align 2 {
  %.sroa.0.0.copyload = load float, ptr %0, align 4
  %.sroa.3.0..sroa_idx = getelementptr inbounds nuw i8, ptr %0, i64 4
  %.sroa.3.0.copyload = load float, ptr %.sroa.3.0..sroa_idx, align 4
  %.sroa.5.0..sroa_idx = getelementptr inbounds nuw i8, ptr %0, i64 8
  %.sroa.5.0.copyload = load float, ptr %.sroa.5.0..sroa_idx, align 4
  %.sroa.7.0..sroa_idx = getelementptr inbounds nuw i8, ptr %0, i64 12
  %.sroa.7.0.copyload = load float, ptr %.sroa.7.0..sroa_idx, align 4
  %3 = load float, ptr %1, align 4
  %4 = getelementptr inbounds nuw i8, ptr %1, i64 8
  %5 = load float, ptr %4, align 4
  %6 = fmul float %.sroa.3.0.copyload, %5
  %7 = tail call float @llvm.fmuladd.f32(float %.sroa.0.0.copyload, float %3, float %6)
  store float %7, ptr %0, align 4
  %8 = getelementptr inbounds nuw i8, ptr %1, i64 4
  %9 = load float, ptr %8, align 4
  %10 = getelementptr inbounds nuw i8, ptr %1, i64 12
  %11 = load float, ptr %10, align 4
  %12 = fmul float %.sroa.3.0.copyload, %11
  %13 = tail call float @llvm.fmuladd.f32(float %.sroa.0.0.copyload, float %9, float %12)
  store float %13, ptr %.sroa.3.0..sroa_idx, align 4
  %14 = load float, ptr %1, align 4
  %15 = load float, ptr %4, align 4
  %16 = fmul float %.sroa.7.0.copyload, %15
  %17 = tail call float @llvm.fmuladd.f32(float %.sroa.5.0.copyload, float %14, float %16)
  store float %17, ptr %.sroa.5.0..sroa_idx, align 4
  %18 = load float, ptr %8, align 4
  %19 = load float, ptr %10, align 4
  %20 = fmul float %.sroa.7.0.copyload, %19
  %21 = tail call float @llvm.fmuladd.f32(float %.sroa.5.0.copyload, float %18, float %20)
  store float %21, ptr %.sroa.7.0..sroa_idx, align 4
  ret ptr %0
}